; ModuleID = 'source-C-CXX/54/691.cpp'
source_filename = "source-C-CXX/54/691.cpp"
target datalayout = "e-m:e-p270:32:32-p271:32:32-p272:64:64-i64:64-f80:128-n8:16:32:64-S128"
target triple = "x86_64-pc-linux-gnu"

%"class.std::ios_base::Init" = type { i8 }
%"class.std::basic_istream" = type { i32 (...)**, i64, %"class.std::basic_ios" }
%"class.std::basic_ios" = type { %"class.std::ios_base", %"class.std::basic_ostream"*, i8, i8, %"class.std::basic_streambuf"*, %"class.std::ctype"*, %"class.std::num_put"*, %"class.std::num_get"* }
%"class.std::ios_base" = type { i32 (...)**, i64, i64, i32, i32, i32, %"struct.std::ios_base::_Callback_list"*, %"struct.std::ios_base::_Words", [8 x %"struct.std::ios_base::_Words"], i32, %"struct.std::ios_base::_Words"*, %"class.std::locale" }
%"struct.std::ios_base::_Callback_list" = type { %"struct.std::ios_base::_Callback_list"*, void (i32, %"class.std::ios_base"*, i32)*, i32, i32 }
%"struct.std::ios_base::_Words" = type { i8*, i64 }
%"class.std::locale" = type { %"class.std::locale::_Impl"* }
%"class.std::locale::_Impl" = type { i32, %"class.std::locale::facet"**, i64, %"class.std::locale::facet"**, i8** }
%"class.std::locale::facet" = type <{ i32 (...)**, i32, [4 x i8] }>
%"class.std::basic_ostream" = type { i32 (...)**, %"class.std::basic_ios" }
%"class.std::basic_streambuf" = type { i32 (...)**, i8*, i8*, i8*, i8*, i8*, i8*, %"class.std::locale" }
%"class.std::ctype" = type <{ %"class.std::locale::facet.base", [4 x i8], %struct.__locale_struct*, i8, [7 x i8], i32*, i32*, i16*, i8, [256 x i8], [256 x i8], i8, [6 x i8] }>
%"class.std::locale::facet.base" = type <{ i32 (...)**, i32 }>
%struct.__locale_struct = type { [13 x %struct.__locale_data*], i16*, i32*, i32*, [13 x i8*] }
%struct.__locale_data = type opaque
%"class.std::num_put" = type { %"class.std::locale::facet.base", [4 x i8] }
%"class.std::num_get" = type { %"class.std::locale::facet.base", [4 x i8] }

@_ZStL8__ioinit = internal global %"class.std::ios_base::Init" zeroinitializer, align 1
@__dso_handle = external hidden global i8
@_ZSt3cin = external global %"class.std::basic_istream", align 8
@_ZSt4cout = external global %"class.std::basic_ostream", align 8
@llvm.global_ctors = appending global [1 x { i32, void ()*, i8* }] [{ i32, void ()*, i8* } { i32 65535, void ()* @_GLOBAL__sub_I_691.cpp, i8* null }]

declare void @_ZNSt8ios_base4InitC1Ev(%"class.std::ios_base::Init"* nonnull align 1 dereferenceable(1)) unnamed_addr #0

; Function Attrs: nounwind
declare void @_ZNSt8ios_base4InitD1Ev(%"class.std::ios_base::Init"* nonnull align 1 dereferenceable(1)) unnamed_addr #1

; Function Attrs: nofree nounwind
declare i32 @__cxa_atexit(void (i8*)*, i8*, i8*) local_unnamed_addr #2

; Function Attrs: mustprogress norecurse sspstrong uwtable
define dso_local i32 @main() local_unnamed_addr #3 {
  %1 = alloca i8, align 1
  %2 = alloca i32, align 4
  %3 = alloca i32, align 4
  %4 = alloca [32 x i8], align 16
  %5 = bitcast i32* %2 to i8*
  call void @llvm.lifetime.start.p0i8(i64 4, i8* nonnull %5) #9
  %6 = bitcast i32* %3 to i8*
  call void @llvm.lifetime.start.p0i8(i64 4, i8* nonnull %6) #9
  %7 = getelementptr inbounds [32 x i8], [32 x i8]* %4, i64 0, i64 0
  call void @llvm.lifetime.start.p0i8(i64 32, i8* nonnull %7) #9
  %8 = call nonnull align 8 dereferenceable(16) %"class.std::basic_istream"* @_ZNSirsERi(%"class.std::basic_istream"* nonnull align 8 dereferenceable(16) @_ZSt3cin, i32* nonnull align 4 dereferenceable(4) %2)
  call void @_ZSt17__istream_extractRSiPcl(%"class.std::basic_istream"* nonnull align 8 dereferenceable(16) %8, i8* nonnull %7, i64 32)
  %9 = call nonnull align 8 dereferenceable(16) %"class.std::basic_istream"* @_ZNSirsERi(%"class.std::basic_istream"* nonnull align 8 dereferenceable(16) %8, i32* nonnull align 4 dereferenceable(4) %3)
  %10 = call i64 @strlen(i8* noundef nonnull %7) #10
  %11 = trunc i64 %10 to i32
  %12 = icmp sgt i32 %11, 0
  br i1 %12, label %13, label %45

13:                                               ; preds = %0
  %14 = add nsw i32 %11, -1
  %15 = call i32 @llvm.umin.i32(i32 %14, i32 31)
  %16 = add nuw nsw i32 %15, 1
  %17 = zext i32 %16 to i64
  br label %18

18:                                               ; preds = %13, %18
  %19 = phi i64 [ 0, %13 ], [ %43, %18 ]
  %20 = phi i32 [ 0, %13 ], [ %42, %18 ]
  %21 = getelementptr inbounds [32 x i8], [32 x i8]* %4, i64 0, i64 %19
  %22 = load i8, i8* %21, align 1, !tbaa !5
  %23 = sext i8 %22 to i32
  %24 = add i8 %22, -65
  %25 = icmp ult i8 %24, 26
  %26 = add i8 %22, -97
  %27 = icmp ult i8 %26, 26
  %28 = select i1 %27, i32 -87, i32 -48
  %29 = select i1 %25, i32 -55, i32 %28
  %30 = add nsw i32 %29, %23
  %31 = sitofp i32 %20 to double
  %32 = load i32, i32* %2, align 4, !tbaa !8
  %33 = trunc i64 %19 to i32
  %34 = sub nsw i32 %11, %33
  %35 = sitofp i32 %34 to double
  %36 = fadd double %35, -1.000000e+00
  %37 = sitofp i32 %32 to double
  %38 = call double @pow(double %37, double %36) #9
  %39 = sitofp i32 %30 to double
  %40 = fmul double %38, %39
  %41 = fadd double %40, %31
  %42 = fptosi double %41 to i32
  %43 = add nuw nsw i64 %19, 1
  %44 = icmp eq i64 %43, %17
  br i1 %44, label %45, label %18, !llvm.loop !10

45:                                               ; preds = %18, %0
  %46 = phi i32 [ 0, %0 ], [ %42, %18 ]
  %47 = load i32, i32* %3, align 4
  br label %48

48:                                               ; preds = %45, %52
  %49 = phi i32 [ %46, %45 ], [ %54, %52 ]
  %50 = phi i64 [ 0, %45 ], [ %55, %52 ]
  %51 = icmp eq i32 %49, 0
  br i1 %51, label %62, label %52

52:                                               ; preds = %48
  %53 = srem i32 %49, %47
  %54 = sdiv i32 %49, %47
  %55 = add nuw nsw i64 %50, 1
  %56 = icmp slt i32 %53, 10
  %57 = trunc i32 %53 to i8
  %58 = select i1 %56, i8 48, i8 55
  %59 = add i8 %58, %57
  %60 = getelementptr inbounds [32 x i8], [32 x i8]* %4, i64 0, i64 %50
  store i8 %59, i8* %60, align 1
  %61 = icmp eq i64 %55, 32
  br i1 %61, label %64, label %48, !llvm.loop !12

62:                                               ; preds = %48
  %63 = icmp eq i32 %46, 0
  br i1 %63, label %72, label %66

64:                                               ; preds = %52
  %65 = icmp eq i32 %46, 0
  br i1 %65, label %72, label %69

66:                                               ; preds = %62
  %67 = trunc i64 %50 to i32
  %68 = icmp sgt i32 %67, 0
  br i1 %68, label %69, label %81

69:                                               ; preds = %64, %66
  %70 = phi i64 [ %50, %66 ], [ 32, %64 ]
  %71 = and i64 %70, 4294967295
  br label %74

72:                                               ; preds = %64, %62
  %73 = call nonnull align 8 dereferenceable(8) %"class.std::basic_ostream"* @_ZNSolsEi(%"class.std::basic_ostream"* nonnull align 8 dereferenceable(8) @_ZSt4cout, i32 0)
  br label %81

74:                                               ; preds = %69, %74
  %75 = phi i64 [ %71, %69 ], [ %76, %74 ]
  %76 = add nsw i64 %75, -1
  %77 = getelementptr inbounds [32 x i8], [32 x i8]* %4, i64 0, i64 %76
  %78 = load i8, i8* %77, align 1, !tbaa !5
  call void @llvm.lifetime.start.p0i8(i64 1, i8* nonnull %1)
  store i8 %78, i8* %1, align 1, !tbaa !5
  %79 = call nonnull align 8 dereferenceable(8) %"class.std::basic_ostream"* @_ZSt16__ostream_insertIcSt11char_traitsIcEERSt13basic_ostreamIT_T0_ES6_PKS3_l(%"class.std::basic_ostream"* nonnull align 8 dereferenceable(8) @_ZSt4cout, i8* nonnull %1, i64 1)
  call void @llvm.lifetime.end.p0i8(i64 1, i8* nonnull %1)
  %80 = icmp sgt i64 %75, 1
  br i1 %80, label %74, label %81, !llvm.loop !13

81:                                               ; preds = %74, %66, %72
  call void @llvm.lifetime.end.p0i8(i64 32, i8* nonnull %7) #9
  call void @llvm.lifetime.end.p0i8(i64 4, i8* nonnull %6) #9
  call void @llvm.lifetime.end.p0i8(i64 4, i8* nonnull %5) #9
  ret i32 0
}

; Function Attrs: argmemonly mustprogress nofree nosync nounwind willreturn
declare void @llvm.lifetime.start.p0i8(i64 immarg, i8* nocapture) #4

declare nonnull align 8 dereferenceable(16) %"class.std::basic_istream"* @_ZNSirsERi(%"class.std::basic_istream"* nonnull align 8 dereferenceable(16), i32* nonnull align 4 dereferenceable(4)) local_unnamed_addr #0

; Function Attrs: argmemonly mustprogress nofree nounwind readonly willreturn
declare i64 @strlen(i8* nocapture) local_unnamed_addr #5

declare nonnull align 8 dereferenceable(8) %"class.std::basic_ostream"* @_ZNSolsEi(%"class.std::basic_ostream"* nonnull align 8 dereferenceable(8), i32) local_unnamed_addr #0

; Function Attrs: argmemonly mustprogress nofree nosync nounwind willreturn
declare void @llvm.lifetime.end.p0i8(i64 immarg, i8* nocapture) #4

; Function Attrs: mustprogress nofree nounwind willreturn
declare double @pow(double, double) local_unnamed_addr #6

declare void @_ZSt17__istream_extractRSiPcl(%"class.std::basic_istream"* nonnull align 8 dereferenceable(16), i8*, i64) local_unnamed_addr #0

declare nonnull align 8 dereferenceable(8) %"class.std::basic_ostream"* @_ZSt16__ostream_insertIcSt11char_traitsIcEERSt13basic_ostreamIT_T0_ES6_PKS3_l(%"class.std::basic_ostream"* nonnull align 8 dereferenceable(8), i8*, i64) local_unnamed_addr #0

; Function Attrs: sspstrong uwtable
define internal void @_GLOBAL__sub_I_691.cpp() #7 section ".text.startup" {
  tail call void @_ZNSt8ios_base4InitC1Ev(%"class.std::ios_base::Init"* nonnull align 1 dereferenceable(1) @_ZStL8__ioinit)
  %1 = tail call i32 @__cxa_atexit(void (i8*)* bitcast (void (%"class.std::ios_base::Init"*)* @_ZNSt8ios_base4InitD1Ev to void (i8*)*), i8* getelementptr inbounds (%"class.std::ios_base::Init", %"class.std::ios_base::Init"* @_ZStL8__ioinit, i64 0, i32 0), i8* nonnull @__dso_handle) #9
  ret void
}

; Function Attrs: nofree nosync nounwind readnone speculatable willreturn
declare i32 @llvm.umin.i32(i32, i32) #8


!llvm.module.flags = !{!0, !1, !2, !3}
!llvm.ident = !{!4}

!0 = !{i32 1, !"wchar_size", i32 4}
!1 = !{i32 7, !"PIC Level", i32 2}
!2 = !{i32 7, !"PIE Level", i32 2}
!3 = !{i32 7, !"uwtable", i32 1}
!4 = !{!"clang version 13.0.0"}
!5 = !{!6, !6, i64 0}
!6 = !{!"omnipotent char", !7, i64 0}
!7 = !{!"Simple C++ TBAA"}
!8 = !{!9, !9, i64 0}
!9 = !{!"int", !6, i64 0}
!10 = distinct !{!10, !11}
!11 = !{!"llvm.loop.mustprogress"}
!12 = distinct !{!12, !11}
!13 = distinct !{!13, !11}
